target datalayout = "e-m:e-p270:32:32-p271:32:32-p272:64:64-i64:64-i128:128-f80:128-n8:16:32:64-S128"
target triple = "x86_64-unknown-linux-gnu"

%"class.hermes::vm::PinnedHermesValue" = type { %"class.hermes::vm::HermesValue" }
%"class.hermes::vm::HermesValue" = type { i64 }
%"class.hermes::vm::PseudoHandle" = type { ptr }
%"class.hermes::vm::CallResult" = type { i16, [2 x i8] }
%"class.hermes::vm::Handle" = type { %"class.hermes::vm::HandleBase" }
%"class.hermes::vm::HandleBase" = type { ptr }
%"class.hermes::vm::JSObject" = type { %"class.hermes::vm::GCCell", %"struct.hermes::vm::ObjectFlags", %"class.hermes::vm::GCPointer", %"class.hermes::vm::GCPointer.5", %"class.hermes::vm::GCPointer.6" }
%"class.hermes::vm::GCCell" = type { %union.anon.4 }
%union.anon.4 = type { %"class.hermes::vm::KindAndSize" }
%"class.hermes::vm::KindAndSize" = type { i32 }
%"struct.hermes::vm::ObjectFlags" = type { i32 }
%"class.hermes::vm::GCPointer" = type { %"class.hermes::vm::GCPointerBase" }
%"class.hermes::vm::GCPointerBase" = type { %"class.hermes::vm::CompressedPointer" }
%"class.hermes::vm::CompressedPointer" = type { %"class.hermes::vm::BasedPointer" }
%"class.hermes::vm::BasedPointer" = type { i32 }
%"class.hermes::vm::GCPointer.5" = type { %"class.hermes::vm::GCPointerBase" }
%"class.hermes::vm::GCPointer.6" = type { %"class.hermes::vm::GCPointerBase" }
%"class.hermes::vm::HandleRootOwner" = type { ptr, ptr }
%"class.llvh::SmallVectorBase" = type { ptr, i32, i32 }
%"struct.llvh::AlignedCharArray.188" = type { [8 x i8] }
%"class.hermes::vm::GCScope" = type <{ ptr, ptr, [128 x i8], %"class.llvh::SmallVector.268", ptr, ptr, i32, [4 x i8] }>
%"class.llvh::SmallVector.268" = type { %"class.llvh::SmallVectorImpl.269", %"struct.llvh::SmallVectorStorage.272" }
%"class.llvh::SmallVectorImpl.269" = type { %"class.llvh::SmallVectorTemplateBase.270" }
%"class.llvh::SmallVectorTemplateBase.270" = type { %"class.llvh::SmallVectorTemplateCommon.271" }
%"class.llvh::SmallVectorTemplateCommon.271" = type { %"class.llvh::SmallVectorBase" }
%"struct.llvh::SmallVectorStorage.272" = type { [4 x %"struct.llvh::AlignedCharArrayUnion.273"] }
%"struct.llvh::AlignedCharArrayUnion.273" = type { %"struct.llvh::AlignedCharArray.188" }

; Function Attrs: mustprogress nounwind uwtable
define linkonce_odr hidden void @_ZN6hermes2vm17PinnedHermesValueC2ENS0_11HermesValueE(ptr noundef nonnull align 8 dereferenceable(8) %this, i64 %v.coerce) unnamed_addr #0 comdat align 2 {
entry:
  %v = alloca %"class.hermes::vm::HermesValue", align 8
  %this.addr = alloca ptr, align 8
  %coerce.dive = getelementptr inbounds %"class.hermes::vm::HermesValue", ptr %v, i32 0, i32 0
  store i64 %v.coerce, ptr %coerce.dive, align 8
  store ptr %this, ptr %this.addr, align 8
  %this1 = load ptr, ptr %this.addr, align 8
  call void @llvm.memcpy.p0.p0.i64(ptr align 8 %this1, ptr align 8 %v, i64 8, i1 false)
  ret void
}

; Function Attrs: mustprogress nounwind uwtable
define linkonce_odr hidden noundef ptr @_ZN6hermes2vm7GCScope20newPinnedHermesValueENS0_11HermesValueE(ptr noundef nonnull align 8 dereferenceable(212) %this, i64 %value.coerce) #0 comdat align 2 {
entry:
  %this.addr.i13 = alloca ptr, align 8
  %this.addr.i10 = alloca ptr, align 8
  %idx.addr.i = alloca i64, align 8
  %this.addr.i8 = alloca ptr, align 8
  %this.addr.i = alloca ptr, align 8
  %.addr.i = alloca i32, align 4
  %retval = alloca ptr, align 8
  %value = alloca %"class.hermes::vm::HermesValue", align 8
  %this.addr = alloca ptr, align 8
  %agg.tmp = alloca %"class.hermes::vm::HermesValue", align 8
  %agg.tmp5 = alloca %"class.hermes::vm::HermesValue", align 8
  %coerce.dive = getelementptr inbounds %"class.hermes::vm::HermesValue", ptr %value, i32 0, i32 0
  store i64 %value.coerce, ptr %coerce.dive, align 8
  store ptr %this, ptr %this.addr, align 8
  %this1 = load ptr, ptr %this.addr, align 8
  store ptr %this1, ptr %this.addr.i8, align 8
  %this1.i9 = load ptr, ptr %this.addr.i8, align 8
  %curChunkIndex_.i = getelementptr inbounds %"class.hermes::vm::GCScope", ptr %this1.i9, i32 0, i32 6
  %0 = load i32, ptr %curChunkIndex_.i, align 8
  %conv.i = zext i32 %0 to i64
  %mul.i = mul i64 %conv.i, 16
  %next_.i = getelementptr inbounds %"class.hermes::vm::GCScope", ptr %this1.i9, i32 0, i32 4
  %1 = load ptr, ptr %next_.i, align 8
  %chunks_.i = getelementptr inbounds %"class.hermes::vm::GCScope", ptr %this1.i9, i32 0, i32 3
  %curChunkIndex_2.i = getelementptr inbounds %"class.hermes::vm::GCScope", ptr %this1.i9, i32 0, i32 6
  %2 = load i32, ptr %curChunkIndex_2.i, align 8
  %conv3.i = zext i32 %2 to i64
  store ptr %chunks_.i, ptr %this.addr.i10, align 8
  store i64 %conv3.i, ptr %idx.addr.i, align 8
  %this1.i11 = load ptr, ptr %this.addr.i10, align 8
  store ptr %this1.i11, ptr %this.addr.i13, align 8
  %this1.i14 = load ptr, ptr %this.addr.i13, align 8
  %3 = load ptr, ptr %this1.i14, align 8
  %4 = load i64, ptr %idx.addr.i, align 8
  %arrayidx.i = getelementptr inbounds ptr, ptr %3, i64 %4
  %5 = load ptr, ptr %arrayidx.i, align 8
  %sub.ptr.lhs.cast.i = ptrtoint ptr %1 to i64
  %sub.ptr.rhs.cast.i = ptrtoint ptr %5 to i64
  %sub.ptr.sub.i = sub i64 %sub.ptr.lhs.cast.i, %sub.ptr.rhs.cast.i
  %sub.ptr.div.i = sdiv exact i64 %sub.ptr.sub.i, 8
  %add.i = add i64 %mul.i, %sub.ptr.div.i
  %add = add i64 %add.i, 1
  %conv = trunc i64 %add to i32
  store ptr %this1, ptr %this.addr.i, align 8
  store i32 %conv, ptr %.addr.i, align 4
  %next_ = getelementptr inbounds %"class.hermes::vm::GCScope", ptr %this1, i32 0, i32 4
  %6 = load ptr, ptr %next_, align 8
  %curChunkEnd_ = getelementptr inbounds %"class.hermes::vm::GCScope", ptr %this1, i32 0, i32 5
  %7 = load ptr, ptr %curChunkEnd_, align 8
  %cmp = icmp ult ptr %6, %7
  br i1 %cmp, label %if.then, label %if.end

if.then:                                          ; preds = %entry
  %next_3 = getelementptr inbounds %"class.hermes::vm::GCScope", ptr %this1, i32 0, i32 4
  %8 = load ptr, ptr %next_3, align 8
  %incdec.ptr = getelementptr inbounds %"class.hermes::vm::PinnedHermesValue", ptr %8, i32 1
  store ptr %incdec.ptr, ptr %next_3, align 8
  call void @llvm.memcpy.p0.p0.i64(ptr align 8 %agg.tmp, ptr align 8 %value, i64 8, i1 false)
  %coerce.dive4 = getelementptr inbounds %"class.hermes::vm::HermesValue", ptr %agg.tmp, i32 0, i32 0
  %9 = load i64, ptr %coerce.dive4, align 8
  call void @_ZN6hermes2vm17PinnedHermesValueC2ENS0_11HermesValueE(ptr noundef nonnull align 8 dereferenceable(8) %8, i64 %9)
  store ptr %8, ptr %retval, align 8
  br label %return

if.end:                                           ; preds = %entry
  call void @llvm.memcpy.p0.p0.i64(ptr align 8 %agg.tmp5, ptr align 8 %value, i64 8, i1 false)
  %coerce.dive6 = getelementptr inbounds %"class.hermes::vm::HermesValue", ptr %agg.tmp5, i32 0, i32 0
  %10 = load i64, ptr %coerce.dive6, align 8
  %call7 = call noundef ptr @_ZN6hermes2vm7GCScope15_newChunkAndPHVENS0_11HermesValueE(ptr noundef nonnull align 8 dereferenceable(212) %this1, i64 %10)
  store ptr %call7, ptr %retval, align 8
  br label %return

return:                                           ; preds = %if.end, %if.then
  %11 = load ptr, ptr %retval, align 8
  ret ptr %11
}

; Function Attrs: mustprogress nounwind uwtable
define linkonce_odr hidden noundef ptr @_ZN6hermes2vm15HandleRootOwner20newPinnedHermesValueEPNS0_7GCScopeENS0_11HermesValueE(ptr noundef %inScope, i64 %value.coerce) #0 comdat align 2 {
entry:
  %value = alloca %"class.hermes::vm::HermesValue", align 8
  %inScope.addr = alloca ptr, align 8
  %agg.tmp = alloca %"class.hermes::vm::HermesValue", align 8
  %coerce.dive = getelementptr inbounds %"class.hermes::vm::HermesValue", ptr %value, i32 0, i32 0
  store i64 %value.coerce, ptr %coerce.dive, align 8
  store ptr %inScope, ptr %inScope.addr, align 8
  %0 = load ptr, ptr %inScope.addr, align 8
  call void @llvm.memcpy.p0.p0.i64(ptr align 8 %agg.tmp, ptr align 8 %value, i64 8, i1 false)
  %coerce.dive1 = getelementptr inbounds %"class.hermes::vm::HermesValue", ptr %agg.tmp, i32 0, i32 0
  %1 = load i64, ptr %coerce.dive1, align 8
  %call = call noundef ptr @_ZN6hermes2vm7GCScope20newPinnedHermesValueENS0_11HermesValueE(ptr noundef nonnull align 8 dereferenceable(212) %0, i64 %1)
  ret ptr %call
}

; Function Attrs: mustprogress nounwind uwtable
define linkonce_odr hidden void @_ZN6hermes2vm11HermesValueC2EmNS1_3TagE(ptr noundef nonnull align 8 dereferenceable(8) %this, i64 noundef %val, i64 noundef %tag) unnamed_addr #0 comdat align 2 {
entry:
  %this.addr = alloca ptr, align 8
  %val.addr = alloca i64, align 8
  %tag.addr = alloca i64, align 8
  store ptr %this, ptr %this.addr, align 8
  store i64 %val, ptr %val.addr, align 8
  store i64 %tag, ptr %tag.addr, align 8
  %this1 = load ptr, ptr %this.addr, align 8
  %raw_ = getelementptr inbounds %"class.hermes::vm::HermesValue", ptr %this1, i32 0, i32 0
  %0 = load i64, ptr %val.addr, align 8
  %1 = load i64, ptr %tag.addr, align 8
  %shl = shl i64 %1, 48
  %or = or i64 %0, %shl
  store i64 %or, ptr %raw_, align 8
  ret void
}

; Function Attrs: mustprogress nounwind uwtable
define linkonce_odr hidden void @_ZN6hermes2vm11HermesValue15validatePointerEPKv(ptr noundef %ptr) #0 comdat align 2 {
entry:
  %ptr.addr = alloca ptr, align 8
  store ptr %ptr, ptr %ptr.addr, align 8
  ret void
}

; Function Attrs: mustprogress nounwind uwtable
define linkonce_odr hidden noundef ptr @_ZN6hermes2vm15HandleRootOwner20newPinnedHermesValueENS0_11HermesValueE(ptr noundef nonnull align 8 dereferenceable(16) %this, i64 %value.coerce) #0 comdat align 2 {
entry:
  %value = alloca %"class.hermes::vm::HermesValue", align 8
  %this.addr = alloca ptr, align 8
  %agg.tmp = alloca %"class.hermes::vm::HermesValue", align 8
  %coerce.dive = getelementptr inbounds %"class.hermes::vm::HermesValue", ptr %value, i32 0, i32 0
  store i64 %value.coerce, ptr %coerce.dive, align 8
  store ptr %this, ptr %this.addr, align 8
  %this1 = load ptr, ptr %this.addr, align 8
  %topGCScope_ = getelementptr inbounds %"class.hermes::vm::HandleRootOwner", ptr %this1, i32 0, i32 1
  %0 = load ptr, ptr %topGCScope_, align 8
  call void @llvm.memcpy.p0.p0.i64(ptr align 8 %agg.tmp, ptr align 8 %value, i64 8, i1 false)
  %coerce.dive2 = getelementptr inbounds %"class.hermes::vm::HermesValue", ptr %agg.tmp, i32 0, i32 0
  %1 = load i64, ptr %coerce.dive2, align 8
  %call = call noundef ptr @_ZN6hermes2vm15HandleRootOwner20newPinnedHermesValueEPNS0_7GCScopeENS0_11HermesValueE(ptr noundef %0, i64 %1)
  ret ptr %call
}

; Function Attrs: mustprogress nounwind uwtable
define linkonce_odr hidden i64 @_ZN6hermes2vm11HermesValue23encodeObjectValueUnsafeEPv(ptr noundef %val) #0 comdat align 2 {
entry:
  %retval = alloca %"class.hermes::vm::HermesValue", align 8
  %val.addr = alloca ptr, align 8
  store ptr %val, ptr %val.addr, align 8
  %0 = load ptr, ptr %val.addr, align 8
  call void @_ZN6hermes2vm11HermesValue15validatePointerEPKv(ptr noundef %0)
  %1 = load ptr, ptr %val.addr, align 8
  %2 = ptrtoint ptr %1 to i64
  call void @_ZN6hermes2vm11HermesValueC2EmNS1_3TagE(ptr noundef nonnull align 8 dereferenceable(8) %retval, i64 noundef %2, i64 noundef -1)
  %coerce.dive = getelementptr inbounds %"class.hermes::vm::HermesValue", ptr %retval, i32 0, i32 0
  %3 = load i64, ptr %coerce.dive, align 8
  ret i64 %3
}

; Function Attrs: mustprogress nounwind uwtable
define linkonce_odr hidden void @_ZN6hermes2vm10HandleBaseC2ERNS0_15HandleRootOwnerENS0_11HermesValueE(ptr noundef nonnull align 8 dereferenceable(8) %this, ptr noundef nonnull align 8 dereferenceable(16) %runtime, i64 %value.coerce) unnamed_addr #0 comdat align 2 {
entry:
  %value = alloca %"class.hermes::vm::HermesValue", align 8
  %this.addr = alloca ptr, align 8
  %runtime.addr = alloca ptr, align 8
  %agg.tmp = alloca %"class.hermes::vm::HermesValue", align 8
  %coerce.dive = getelementptr inbounds %"class.hermes::vm::HermesValue", ptr %value, i32 0, i32 0
  store i64 %value.coerce, ptr %coerce.dive, align 8
  store ptr %this, ptr %this.addr, align 8
  store ptr %runtime, ptr %runtime.addr, align 8
  %this1 = load ptr, ptr %this.addr, align 8
  %handle_ = getelementptr inbounds %"class.hermes::vm::HandleBase", ptr %this1, i32 0, i32 0
  %0 = load ptr, ptr %runtime.addr, align 8
  call void @llvm.memcpy.p0.p0.i64(ptr align 8 %agg.tmp, ptr align 8 %value, i64 8, i1 false)
  %coerce.dive2 = getelementptr inbounds %"class.hermes::vm::HermesValue", ptr %agg.tmp, i32 0, i32 0
  %1 = load i64, ptr %coerce.dive2, align 8
  %call = call noundef ptr @_ZN6hermes2vm15HandleRootOwner20newPinnedHermesValueENS0_11HermesValueE(ptr noundef nonnull align 8 dereferenceable(16) %0, i64 %1)
  store ptr %call, ptr %handle_, align 8
  ret void
}

; Function Attrs: mustprogress nounwind uwtable
define linkonce_odr hidden i64 @_ZN6hermes2vm17HermesValueTraitsINS0_8JSObjectELb1EE6encodeEPS2_(ptr noundef %value) #0 comdat align 2 {
entry:
  %retval = alloca %"class.hermes::vm::HermesValue", align 8
  %value.addr = alloca ptr, align 8
  store ptr %value, ptr %value.addr, align 8
  %0 = load ptr, ptr %value.addr, align 8
  %call = call i64 @_ZN6hermes2vm11HermesValue23encodeObjectValueUnsafeEPv(ptr noundef %0)
  %coerce.dive = getelementptr inbounds %"class.hermes::vm::HermesValue", ptr %retval, i32 0, i32 0
  store i64 %call, ptr %coerce.dive, align 8
  %coerce.dive1 = getelementptr inbounds %"class.hermes::vm::HermesValue", ptr %retval, i32 0, i32 0
  %1 = load i64, ptr %coerce.dive1, align 8
  ret i64 %1
}

; Function Attrs: mustprogress nounwind uwtable
define linkonce_odr hidden void @_ZN6hermes2vm12PseudoHandleINS0_8JSObjectEE10invalidateEv(ptr noundef nonnull align 8 dereferenceable(8) %this) #0 comdat align 2 {
entry:
  %this.addr = alloca ptr, align 8
  store ptr %this, ptr %this.addr, align 8
  ret void
}

; Function Attrs: mustprogress nounwind uwtable
define linkonce_odr hidden void @_ZN6hermes2vm6HandleINS0_8JSObjectEEC2ERNS0_15HandleRootOwnerEPS2_(ptr noundef nonnull align 8 dereferenceable(8) %this, ptr noundef nonnull align 8 dereferenceable(16) %runtime, ptr noundef %value) unnamed_addr #0 comdat align 2 {
entry:
  %this.addr = alloca ptr, align 8
  %runtime.addr = alloca ptr, align 8
  %value.addr = alloca ptr, align 8
  %agg.tmp = alloca %"class.hermes::vm::HermesValue", align 8
  store ptr %this, ptr %this.addr, align 8
  store ptr %runtime, ptr %runtime.addr, align 8
  store ptr %value, ptr %value.addr, align 8
  %this1 = load ptr, ptr %this.addr, align 8
  %0 = load ptr, ptr %runtime.addr, align 8
  %1 = load ptr, ptr %value.addr, align 8
  %call = call i64 @_ZN6hermes2vm17HermesValueTraitsINS0_8JSObjectELb1EE6encodeEPS2_(ptr noundef %1)
  %coerce.dive = getelementptr inbounds %"class.hermes::vm::HermesValue", ptr %agg.tmp, i32 0, i32 0
  store i64 %call, ptr %coerce.dive, align 8
  %coerce.dive2 = getelementptr inbounds %"class.hermes::vm::HermesValue", ptr %agg.tmp, i32 0, i32 0
  %2 = load i64, ptr %coerce.dive2, align 8
  call void @_ZN6hermes2vm10HandleBaseC2ERNS0_15HandleRootOwnerENS0_11HermesValueE(ptr noundef nonnull align 8 dereferenceable(8) %this1, ptr noundef nonnull align 8 dereferenceable(16) %0, i64 %2)
  ret void
}

; Function Attrs: mustprogress nounwind uwtable
define linkonce_odr hidden noundef ptr @_ZNK6hermes2vm12PseudoHandleINS0_8JSObjectEE3getEv(ptr noundef nonnull align 8 dereferenceable(8) %this) #0 comdat align 2 {
entry:
  %this.addr = alloca ptr, align 8
  store ptr %this, ptr %this.addr, align 8
  %this1 = load ptr, ptr %this.addr, align 8
  %value_ = getelementptr inbounds %"class.hermes::vm::PseudoHandle", ptr %this1, i32 0, i32 0
  %0 = load ptr, ptr %value_, align 8
  ret ptr %0
}

; Function Attrs: mustprogress nounwind uwtable
define linkonce_odr hidden noundef ptr @_ZN6hermes2vm17HermesValueTraitsINS0_8JSObjectELb1EE5arrowEPS2_(ptr noundef %ptr) #0 comdat align 2 {
entry:
  %ptr.addr = alloca ptr, align 8
  store ptr %ptr, ptr %ptr.addr, align 8
  %0 = load ptr, ptr %ptr.addr, align 8
  ret ptr %0
}

; Function Attrs: mustprogress nounwind uwtable
define linkonce_odr hidden void @_ZN6hermes2vm10CallResultIbLNS0_6detail20CallResultSpecializeE1EEC2Eb(ptr noundef nonnull align 4 dereferenceable(2) %this, i1 noundef zeroext %value) unnamed_addr #0 comdat align 2 {
entry:
  %this.addr = alloca ptr, align 8
  %value.addr = alloca i8, align 1
  store ptr %this, ptr %this.addr, align 8
  %frombool = zext i1 %value to i8
  store i8 %frombool, ptr %value.addr, align 1
  %this1 = load ptr, ptr %this.addr, align 8
  %bf.load = load i16, ptr %this1, align 4
  %bf.clear = and i16 %bf.load, -256
  %bf.set = or i16 %bf.clear, 1
  store i16 %bf.set, ptr %this1, align 4
  %0 = load i8, ptr %value.addr, align 1
  %tobool = trunc i8 %0 to i1
  %1 = zext i1 %tobool to i16
  %bf.load2 = load i16, ptr %this1, align 4
  %bf.shl = shl i16 %1, 8
  %bf.clear3 = and i16 %bf.load2, -257
  %bf.set4 = or i16 %bf.clear3, %bf.shl
  store i16 %bf.set4, ptr %this1, align 4
  ret void
}

; Function Attrs: mustprogress nounwind uwtable
define linkonce_odr hidden noundef zeroext i1 @_ZNK6hermes2vm8JSObject12isExtensibleEv(ptr noundef nonnull align 4 dereferenceable(20) %this) #0 comdat align 2 {
entry:
  %this.addr = alloca ptr, align 8
  store ptr %this, ptr %this.addr, align 8
  %this1 = load ptr, ptr %this.addr, align 8
  %flags_ = getelementptr inbounds %"class.hermes::vm::JSObject", ptr %this1, i32 0, i32 1
  %bf.load = load i32, ptr %flags_, align 4
  %bf.clear = and i32 %bf.load, 1
  %tobool = icmp ne i32 %bf.clear, 0
  %lnot = xor i1 %tobool, true
  ret i1 %lnot
}

; Function Attrs: mustprogress nounwind uwtable
define linkonce_odr hidden ptr @_ZN6hermes2vm15HandleRootOwner10makeHandleINS0_8JSObjectEEENS0_6HandleIT_EEONS0_12PseudoHandleIS5_EE(ptr noundef nonnull align 8 dereferenceable(16) %this, ptr noundef nonnull align 8 dereferenceable(8) %pseudo) #0 comdat align 2 {
entry:
  %retval = alloca %"class.hermes::vm::Handle", align 8
  %this.addr = alloca ptr, align 8
  %pseudo.addr = alloca ptr, align 8
  store ptr %this, ptr %this.addr, align 8
  store ptr %pseudo, ptr %pseudo.addr, align 8
  %this1 = load ptr, ptr %this.addr, align 8
  %0 = load ptr, ptr %pseudo.addr, align 8
  %call = call noundef ptr @_ZNK6hermes2vm12PseudoHandleINS0_8JSObjectEE3getEv(ptr noundef nonnull align 8 dereferenceable(8) %0)
  call void @_ZN6hermes2vm6HandleINS0_8JSObjectEEC2ERNS0_15HandleRootOwnerEPS2_(ptr noundef nonnull align 8 dereferenceable(8) %retval, ptr noundef nonnull align 8 dereferenceable(16) %this1, ptr noundef %call)
  %1 = load ptr, ptr %pseudo.addr, align 8
  call void @_ZN6hermes2vm12PseudoHandleINS0_8JSObjectEE10invalidateEv(ptr noundef nonnull align 8 dereferenceable(8) %1)
  %coerce.dive = getelementptr inbounds %"class.hermes::vm::Handle", ptr %retval, i32 0, i32 0
  %coerce.dive2 = getelementptr inbounds %"class.hermes::vm::HandleBase", ptr %coerce.dive, i32 0, i32 0
  %2 = load ptr, ptr %coerce.dive2, align 8
  ret ptr %2
}

; Function Attrs: mustprogress nounwind uwtable
define linkonce_odr hidden noundef zeroext i1 @_ZNK6hermes2vm8JSObject13isProxyObjectEv(ptr noundef nonnull align 4 dereferenceable(20) %this) #0 comdat align 2 {
entry:
  %this.addr = alloca ptr, align 8
  store ptr %this, ptr %this.addr, align 8
  %this1 = load ptr, ptr %this.addr, align 8
  %flags_ = getelementptr inbounds %"class.hermes::vm::JSObject", ptr %this1, i32 0, i32 1
  %bf.load = load i32, ptr %flags_, align 4
  %bf.lshr = lshr i32 %bf.load, 7
  %bf.clear = and i32 %bf.lshr, 1
  %tobool = icmp ne i32 %bf.clear, 0
  ret i1 %tobool
}

; Function Attrs: mustprogress nounwind uwtable
define linkonce_odr hidden noundef ptr @_ZNK6hermes2vm12PseudoHandleINS0_8JSObjectEEptEv(ptr noundef nonnull align 8 dereferenceable(8) %this) #0 comdat align 2 {
entry:
  %this.addr = alloca ptr, align 8
  store ptr %this, ptr %this.addr, align 8
  %this1 = load ptr, ptr %this.addr, align 8
  %value_ = getelementptr inbounds %"class.hermes::vm::PseudoHandle", ptr %this1, i32 0, i32 0
  %0 = load ptr, ptr %value_, align 8
  %call = call noundef ptr @_ZN6hermes2vm17HermesValueTraitsINS0_8JSObjectELb1EE5arrowEPS2_(ptr noundef %0)
  ret ptr %call
}

; Function Attrs: mustprogress nounwind uwtable
define hidden i32 @_ZN6hermes2vm8JSObject12isExtensibleENS0_12PseudoHandleIS1_EERNS0_7RuntimeE(ptr %self.coerce, ptr noundef nonnull align 8 dereferenceable(9832) %runtime) #0 align 2 {
entry:
  %retval = alloca %"class.hermes::vm::CallResult", align 4
  %self = alloca %"class.hermes::vm::PseudoHandle", align 8
  %runtime.addr = alloca ptr, align 8
  %agg.tmp = alloca %"class.hermes::vm::Handle", align 8
  %coerce.dive = getelementptr inbounds %"class.hermes::vm::PseudoHandle", ptr %self, i32 0, i32 0
  store ptr %self.coerce, ptr %coerce.dive, align 8
  store ptr %runtime, ptr %runtime.addr, align 8
  %call = call noundef ptr @_ZNK6hermes2vm12PseudoHandleINS0_8JSObjectEEptEv(ptr noundef nonnull align 8 dereferenceable(8) %self)
  %call1 = call noundef zeroext i1 @_ZNK6hermes2vm8JSObject13isProxyObjectEv(ptr noundef nonnull align 4 dereferenceable(20) %call)
  br i1 %call1, label %if.then, label %if.end

if.then:                                          ; preds = %entry
  %0 = load ptr, ptr %runtime.addr, align 8
  %call2 = call ptr @_ZN6hermes2vm15HandleRootOwner10makeHandleINS0_8JSObjectEEENS0_6HandleIT_EEONS0_12PseudoHandleIS5_EE(ptr noundef nonnull align 8 dereferenceable(16) %0, ptr noundef nonnull align 8 dereferenceable(8) %self)
  %coerce.dive3 = getelementptr inbounds %"class.hermes::vm::Handle", ptr %agg.tmp, i32 0, i32 0
  %coerce.dive4 = getelementptr inbounds %"class.hermes::vm::HandleBase", ptr %coerce.dive3, i32 0, i32 0
  store ptr %call2, ptr %coerce.dive4, align 8
  %1 = load ptr, ptr %runtime.addr, align 8
  %coerce.dive5 = getelementptr inbounds %"class.hermes::vm::Handle", ptr %agg.tmp, i32 0, i32 0
  %coerce.dive6 = getelementptr inbounds %"class.hermes::vm::HandleBase", ptr %coerce.dive5, i32 0, i32 0
  %2 = load ptr, ptr %coerce.dive6, align 8
  %call7 = call i32 @_ZN6hermes2vm7JSProxy12isExtensibleENS0_6HandleINS0_8JSObjectEEERNS0_7RuntimeE(ptr %2, ptr noundef nonnull align 8 dereferenceable(9832) %1)
  store i32 %call7, ptr %retval, align 4
  br label %return

if.end:                                           ; preds = %entry
  %call8 = call noundef ptr @_ZNK6hermes2vm12PseudoHandleINS0_8JSObjectEEptEv(ptr noundef nonnull align 8 dereferenceable(8) %self)
  %call9 = call noundef zeroext i1 @_ZNK6hermes2vm8JSObject12isExtensibleEv(ptr noundef nonnull align 4 dereferenceable(20) %call8)
  call void @_ZN6hermes2vm10CallResultIbLNS0_6detail20CallResultSpecializeE1EEC2Eb(ptr noundef nonnull align 4 dereferenceable(2) %retval, i1 noundef zeroext %call9)
  br label %return

return:                                           ; preds = %if.end, %if.then
  %3 = load i32, ptr %retval, align 4
  ret i32 %3
}