; Function Attrs: mustprogress nounwind uwtable
define hidden i32 @_ZN6hermes2vm8JSObject12isExtensibleENS0_12PseudoHandleIS1_EERNS0_7RuntimeE(ptr %self.coerce, ptr noundef nonnull align 8 dereferenceable(9832) %runtime) local_unnamed_addr #1 align 2 {
entry:
  %flags_.i = getelementptr inbounds nuw i8, ptr %self.coerce, i64 4
  %bf.load.i = load i32, ptr %flags_.i, align 4
  %0 = and i32 %bf.load.i, 128
  %tobool.i.not = icmp eq i32 %0, 0
  br i1 %tobool.i.not, label %if.end, label %if.then

if.then:                                          ; preds = %entry
  %1 = ptrtoint ptr %self.coerce to i64
  %or.i.i.i.i.i = or i64 %1, -281474976710656
  %topGCScope_.i.i.i.i = getelementptr inbounds nuw i8, ptr %runtime, i64 8
  %2 = load ptr, ptr %topGCScope_.i.i.i.i, align 8
  %next_.i.i.i.i.i.i.i = getelementptr inbounds nuw i8, ptr %2, i64 192
  %3 = load ptr, ptr %next_.i.i.i.i.i.i.i, align 8
  %curChunkEnd_.i.i.i.i.i.i = getelementptr inbounds nuw i8, ptr %2, i64 200
  %4 = load ptr, ptr %curChunkEnd_.i.i.i.i.i.i, align 8
  %cmp.i.i.i.i.i.i = icmp ult ptr %3, %4
  br i1 %cmp.i.i.i.i.i.i, label %if.then.i.i.i.i.i.i, label %if.end.i.i.i.i.i.i

if.then.i.i.i.i.i.i:                              ; preds = %if.then
  %incdec.ptr.i.i.i.i.i.i = getelementptr inbounds nuw i8, ptr %3, i64 8
  store ptr %incdec.ptr.i.i.i.i.i.i, ptr %next_.i.i.i.i.i.i.i, align 8
  store i64 %or.i.i.i.i.i, ptr %3, align 8
  br label %_ZN6hermes2vm15HandleRootOwner10makeHandleINS0_8JSObjectEEENS0_6HandleIT_EEONS0_12PseudoHandleIS5_EE.exit

if.end.i.i.i.i.i.i:                               ; preds = %if.then
  %call7.i.i.i.i.i.i = tail call noundef ptr @_ZN6hermes2vm7GCScope15_newChunkAndPHVENS0_11HermesValueE(ptr noundef nonnull align 8 dereferenceable(212) %2, i64 %or.i.i.i.i.i) #17
  br label %_ZN6hermes2vm15HandleRootOwner10makeHandleINS0_8JSObjectEEENS0_6HandleIT_EEONS0_12PseudoHandleIS5_EE.exit

_ZN6hermes2vm15HandleRootOwner10makeHandleINS0_8JSObjectEEENS0_6HandleIT_EEONS0_12PseudoHandleIS5_EE.exit: ; preds = %if.then.i.i.i.i.i.i, %if.end.i.i.i.i.i.i
  %retval.0.i.i.i.i.i.i = phi ptr [ %3, %if.then.i.i.i.i.i.i ], [ %call7.i.i.i.i.i.i, %if.end.i.i.i.i.i.i ]
  %call7 = tail call i32 @_ZN6hermes2vm7JSProxy12isExtensibleENS0_6HandleINS0_8JSObjectEEERNS0_7RuntimeE(ptr %retval.0.i.i.i.i.i.i, ptr noundef nonnull align 8 dereferenceable(9832) %runtime) #17
  %retval.sroa.4.0.extract.shift = and i32 %call7, -65536
  %5 = and i32 %call7, 65535
  br label %return

if.end:                                           ; preds = %entry
  %bf.clear.i = and i32 %bf.load.i, 1
  %tobool.not.i = icmp eq i32 %bf.clear.i, 0
  %bf.set.i = select i1 %tobool.not.i, i32 257, i32 1
  br label %return

return:                                           ; preds = %if.end, %_ZN6hermes2vm15HandleRootOwner10makeHandleINS0_8JSObjectEEENS0_6HandleIT_EEONS0_12PseudoHandleIS5_EE.exit
  %retval.sroa.0.0 = phi i32 [ %5, %_ZN6hermes2vm15HandleRootOwner10makeHandleINS0_8JSObjectEEENS0_6HandleIT_EEONS0_12PseudoHandleIS5_EE.exit ], [ %bf.set.i, %if.end ]
  %retval.sroa.4.0 = phi i32 [ %retval.sroa.4.0.extract.shift, %_ZN6hermes2vm15HandleRootOwner10makeHandleINS0_8JSObjectEEENS0_6HandleIT_EEONS0_12PseudoHandleIS5_EE.exit ], [ 0, %if.end ]
  %retval.sroa.0.0.insert.insert = or disjoint i32 %retval.sroa.4.0, %retval.sroa.0.0
  ret i32 %retval.sroa.0.0.insert.insert
}